(lp0
S'poi'
p1
aS'bonus'
p2
aS'deferred_income'
p3
aS'exercised_stock_options'
p4
aS'expenses'
p5
aS'long_term_incentive'
p6
aS'restricted_stock'
p7
aS'salary'
p8
aS'total_payments'
p9
aS'total_stock_value'
p10
aS'to_poi_ratio'
p11
aS'from_poi_ratio'
p12
aS'to_poi_ratio_normalized'
p13
aS'from_poi_ratio_normalized'
p14
a.